; Function Attrs: nounwind uwtable
define nonnull ptr @l___private_Init_Data_Vector_Basic_0__decEqVector____x40_Init_Data_Vector_Basic___hyg_100____at___private_Std_Net_Addr_0__Std_Net_decEqMACAddr____x40_Std_Net_Addr___hyg_29____spec__1___rarg___boxed(ptr noundef %0, ptr noundef %1) #0 {
  %3 = load ptr, ptr @l___private_Init_Data_Vector_Basic_0__decEqVector____x40_Init_Data_Vector_Basic___hyg_100____at___private_Std_Net_Addr_0__Std_Net_decEqMACAddr____x40_Std_Net_Addr___hyg_29____spec__1___rarg___closed__1, align 8, !tbaa !4
  %4 = tail call zeroext i8 @l_Array_instDecidableEq___rarg(ptr noundef %3, ptr noundef %0, ptr noundef %1) #7
  %5 = ptrtoint ptr %1 to i64
  %6 = and i64 %5, 1
  %.not = icmp eq i64 %6, 0
  br i1 %.not, label %7, label %lean_dec.exit

7:                                                ; preds = %2
  %8 = load i32, ptr %1, align 4, !tbaa !8
  %9 = icmp sgt i32 %8, 1
  br i1 %9, label %10, label %12, !prof !13

10:                                               ; preds = %7
  %11 = add nsw i32 %8, -1
  store i32 %11, ptr %1, align 4, !tbaa !8
  br label %lean_dec.exit

12:                                               ; preds = %7
  %.not.i6 = icmp eq i32 %8, 0
  br i1 %.not.i6, label %lean_dec.exit, label %13

13:                                               ; preds = %12
  tail call void @lean_dec_ref_cold(ptr noundef nonnull %1) #7
  br label %lean_dec.exit

lean_dec.exit:                                    ; preds = %13, %12, %10, %2
  %14 = ptrtoint ptr %0 to i64
  %15 = and i64 %14, 1
  %.not8 = icmp eq i64 %15, 0
  br i1 %.not8, label %16, label %lean_dec.exit5

16:                                               ; preds = %lean_dec.exit
  %17 = load i32, ptr %0, align 4, !tbaa !8
  %18 = icmp sgt i32 %17, 1
  br i1 %18, label %19, label %21, !prof !13

19:                                               ; preds = %16
  %20 = add nsw i32 %17, -1
  store i32 %20, ptr %0, align 4, !tbaa !8
  br label %lean_dec.exit5

21:                                               ; preds = %16
  %.not.i = icmp eq i32 %17, 0
  br i1 %.not.i, label %lean_dec.exit5, label %22

22:                                               ; preds = %21
  tail call void @lean_dec_ref_cold(ptr noundef nonnull %0) #7
  br label %lean_dec.exit5

lean_dec.exit5:                                   ; preds = %22, %21, %19, %lean_dec.exit
  %23 = zext i8 %4 to i64
  %24 = shl nuw nsw i64 %23, 1
  %25 = or disjoint i64 %24, 1
  %26 = inttoptr i64 %25 to ptr
  ret ptr %26
}